target datalayout = "e-m:e-p270:32:32-p271:32:32-p272:64:64-i64:64-i128:128-f80:128-n8:16:32:64-S128"
target triple = "x86_64-pc-linux-gnu"

%"class.icu_77::Package" = type <{ [64 x i8], [64 x i8], ptr, [1024 x i8], i32, i32, i8, i8, i8, i8, i32, i32, [4 x i8], ptr, i32, i32, [100000 x i8], [100000 x i8], i32, [4 x i8], ptr, ptr, i32, i32, i32, i8, [3 x i8] }>
%"struct.icu_77::Item" = type { ptr, ptr, i32, i8, i8 }

; Function Attrs: mustprogress nounwind uwtable
define noundef i32 @_ZN6icu_777Package12findNextItemEv(ptr noundef nonnull align 8 dereferenceable(201237) %0) #3 align 2 {
  %2 = alloca i32, align 4
  %3 = alloca ptr, align 8
  %4 = alloca ptr, align 8
  %5 = alloca ptr, align 8
  %6 = alloca ptr, align 8
  %7 = alloca i32, align 4
  %8 = alloca i32, align 4
  %9 = alloca i32, align 4
  %10 = alloca i32, align 4
  store ptr %0, ptr %3, align 8, !tbaa !26
  %11 = load ptr, ptr %3, align 8
  call void @llvm.lifetime.start.p0(i64 8, ptr %4) #13
  call void @llvm.lifetime.start.p0(i64 8, ptr %5) #13
  call void @llvm.lifetime.start.p0(i64 8, ptr %6) #13
  call void @llvm.lifetime.start.p0(i64 4, ptr %7) #13
  call void @llvm.lifetime.start.p0(i64 4, ptr %8) #13
  call void @llvm.lifetime.start.p0(i64 4, ptr %9) #13
  %12 = getelementptr inbounds nuw %"class.icu_77::Package", ptr %11, i32 0, i32 24
  %13 = load i32, ptr %12, align 8, !tbaa !47
  %14 = icmp slt i32 %13, 0
  br i1 %14, label %15, label %16

15:                                               ; preds = %1
  store i32 -1, ptr %2, align 4
  store i32 1, ptr %10, align 4
  br label %116

16:                                               ; preds = %1
  br label %17

17:                                               ; preds = %110, %90, %44, %16
  %18 = getelementptr inbounds nuw %"class.icu_77::Package", ptr %11, i32 0, i32 24
  %19 = load i32, ptr %18, align 8, !tbaa !47
  %20 = getelementptr inbounds nuw %"class.icu_77::Package", ptr %11, i32 0, i32 10
  %21 = load i32, ptr %20, align 4, !tbaa !37
  %22 = icmp slt i32 %19, %21
  br i1 %22, label %23, label %114

23:                                               ; preds = %17
  %24 = getelementptr inbounds nuw %"class.icu_77::Package", ptr %11, i32 0, i32 24
  %25 = load i32, ptr %24, align 8, !tbaa !47
  %26 = add nsw i32 %25, 1
  store i32 %26, ptr %24, align 8, !tbaa !47
  store i32 %25, ptr %7, align 4, !tbaa !8
  %27 = getelementptr inbounds nuw %"class.icu_77::Package", ptr %11, i32 0, i32 13
  %28 = load ptr, ptr %27, align 8, !tbaa !39
  %29 = load i32, ptr %7, align 4, !tbaa !8
  %30 = sext i32 %29 to i64
  %31 = getelementptr inbounds %"struct.icu_77::Item", ptr %28, i64 %30
  %32 = getelementptr inbounds nuw %"struct.icu_77::Item", ptr %31, i32 0, i32 0
  %33 = load ptr, ptr %32, align 8, !tbaa !68
  store ptr %33, ptr %4, align 8, !tbaa !3
  %34 = load ptr, ptr %4, align 8, !tbaa !3
  %35 = call i64 @strlen(ptr noundef %34) #15
  %36 = trunc i64 %35 to i32
  store i32 %36, ptr %8, align 4, !tbaa !8
  %37 = load i32, ptr %8, align 4, !tbaa !8
  %38 = getelementptr inbounds nuw %"class.icu_77::Package", ptr %11, i32 0, i32 22
  %39 = load i32, ptr %38, align 8, !tbaa !46
  %40 = getelementptr inbounds nuw %"class.icu_77::Package", ptr %11, i32 0, i32 23
  %41 = load i32, ptr %40, align 4, !tbaa !45
  %42 = add nsw i32 %39, %41
  %43 = icmp slt i32 %37, %42
  br i1 %43, label %44, label %45

44:                                               ; preds = %23
  br label %17, !llvm.loop !84

45:                                               ; preds = %23
  %46 = getelementptr inbounds nuw %"class.icu_77::Package", ptr %11, i32 0, i32 22
  %47 = load i32, ptr %46, align 8, !tbaa !46
  %48 = icmp sgt i32 %47, 0
  br i1 %48, label %49, label %59

49:                                               ; preds = %45
  %50 = getelementptr inbounds nuw %"class.icu_77::Package", ptr %11, i32 0, i32 20
  %51 = load ptr, ptr %50, align 8, !tbaa !44
  %52 = load ptr, ptr %4, align 8, !tbaa !3
  %53 = getelementptr inbounds nuw %"class.icu_77::Package", ptr %11, i32 0, i32 22
  %54 = load i32, ptr %53, align 8, !tbaa !46
  %55 = sext i32 %54 to i64
  %56 = call i32 @memcmp(ptr noundef %51, ptr noundef %52, i64 noundef %55) #15
  %57 = icmp ne i32 0, %56
  br i1 %57, label %58, label %59

58:                                               ; preds = %49
  br label %114

59:                                               ; preds = %49, %45
  %60 = load ptr, ptr %4, align 8, !tbaa !3
  %61 = getelementptr inbounds nuw %"class.icu_77::Package", ptr %11, i32 0, i32 22
  %62 = load i32, ptr %61, align 8, !tbaa !46
  %63 = sext i32 %62 to i64
  %64 = getelementptr inbounds i8, ptr %60, i64 %63
  store ptr %64, ptr %5, align 8, !tbaa !3
  %65 = load i32, ptr %8, align 4, !tbaa !8
  %66 = getelementptr inbounds nuw %"class.icu_77::Package", ptr %11, i32 0, i32 22
  %67 = load i32, ptr %66, align 8, !tbaa !46
  %68 = sub nsw i32 %65, %67
  %69 = getelementptr inbounds nuw %"class.icu_77::Package", ptr %11, i32 0, i32 23
  %70 = load i32, ptr %69, align 4, !tbaa !45
  %71 = sub nsw i32 %68, %70
  store i32 %71, ptr %9, align 4, !tbaa !8
  %72 = getelementptr inbounds nuw %"class.icu_77::Package", ptr %11, i32 0, i32 23
  %73 = load i32, ptr %72, align 4, !tbaa !45
  %74 = icmp sgt i32 %73, 0
  br i1 %74, label %75, label %91

75:                                               ; preds = %59
  %76 = getelementptr inbounds nuw %"class.icu_77::Package", ptr %11, i32 0, i32 21
  %77 = load ptr, ptr %76, align 8, !tbaa !43
  %78 = load ptr, ptr %4, align 8, !tbaa !3
  %79 = load i32, ptr %8, align 4, !tbaa !8
  %80 = getelementptr inbounds nuw %"class.icu_77::Package", ptr %11, i32 0, i32 23
  %81 = load i32, ptr %80, align 4, !tbaa !45
  %82 = sub nsw i32 %79, %81
  %83 = sext i32 %82 to i64
  %84 = getelementptr inbounds i8, ptr %78, i64 %83
  %85 = getelementptr inbounds nuw %"class.icu_77::Package", ptr %11, i32 0, i32 23
  %86 = load i32, ptr %85, align 4, !tbaa !45
  %87 = sext i32 %86 to i64
  %88 = call i32 @memcmp(ptr noundef %77, ptr noundef %84, i64 noundef %87) #15
  %89 = icmp ne i32 0, %88
  br i1 %89, label %90, label %91

90:                                               ; preds = %75
  br label %17, !llvm.loop !84

91:                                               ; preds = %75, %59
  %92 = getelementptr inbounds nuw %"class.icu_77::Package", ptr %11, i32 0, i32 18
  %93 = load i32, ptr %92, align 8, !tbaa !42
  %94 = and i32 %93, 1
  %95 = icmp ne i32 %94, 0
  br i1 %95, label %96, label %112

96:                                               ; preds = %91
  %97 = load ptr, ptr %5, align 8, !tbaa !3
  %98 = call noundef ptr @strchr(ptr noundef %97, i32 noundef 47) #15
  store ptr %98, ptr %6, align 8, !tbaa !3
  %99 = load ptr, ptr %6, align 8, !tbaa !3
  %100 = icmp ne ptr %99, null
  br i1 %100, label %101, label %111

101:                                              ; preds = %96
  %102 = load ptr, ptr %6, align 8, !tbaa !3
  %103 = load ptr, ptr %5, align 8, !tbaa !3
  %104 = ptrtoint ptr %102 to i64
  %105 = ptrtoint ptr %103 to i64
  %106 = sub i64 %104, %105
  %107 = load i32, ptr %9, align 4, !tbaa !8
  %108 = sext i32 %107 to i64
  %109 = icmp slt i64 %106, %108
  br i1 %109, label %110, label %111

110:                                              ; preds = %101
  br label %17, !llvm.loop !84

111:                                              ; preds = %101, %96
  br label %112

112:                                              ; preds = %111, %91
  %113 = load i32, ptr %7, align 4, !tbaa !8
  store i32 %113, ptr %2, align 4
  store i32 1, ptr %10, align 4
  br label %116

114:                                              ; preds = %58, %17
  %115 = getelementptr inbounds nuw %"class.icu_77::Package", ptr %11, i32 0, i32 24
  store i32 -1, ptr %115, align 8, !tbaa !47
  store i32 -1, ptr %2, align 4
  store i32 1, ptr %10, align 4
  br label %116

116:                                              ; preds = %114, %112, %15
  call void @llvm.lifetime.end.p0(i64 4, ptr %9) #13
  call void @llvm.lifetime.end.p0(i64 4, ptr %8) #13
  call void @llvm.lifetime.end.p0(i64 4, ptr %7) #13
  call void @llvm.lifetime.end.p0(i64 8, ptr %6) #13
  call void @llvm.lifetime.end.p0(i64 8, ptr %5) #13
  call void @llvm.lifetime.end.p0(i64 8, ptr %4) #13
  %117 = load i32, ptr %2, align 4
  ret i32 %117
}