; Function Attrs: mustprogress nofree nounwind memory(read, argmem: readwrite, inaccessiblemem: none) uwtable
define noundef range(i32 -2147483648, 2147483647) i32 @_ZN6icu_777Package12findNextItemEv(ptr noundef nonnull align 8 captures(none) dereferenceable(201237) %0) local_unnamed_addr #17 align 2 {
  %2 = getelementptr inbounds nuw i8, ptr %0, i64 201232
  %3 = load i32, ptr %2, align 8, !tbaa !27
  %4 = icmp slt i32 %3, 0
  br i1 %4, label %.loopexit, label %.preheader

.preheader:                                       ; preds = %1
  %5 = getelementptr inbounds nuw i8, ptr %0, i64 1172
  %6 = load i32, ptr %5, align 4, !tbaa !29
  %7 = icmp slt i32 %3, %6
  br i1 %7, label %.lr.ph, label %._crit_edge

.lr.ph:                                           ; preds = %.preheader
  %8 = getelementptr inbounds nuw i8, ptr %0, i64 1184
  %9 = load ptr, ptr %8, align 8, !tbaa !30
  %10 = getelementptr inbounds nuw i8, ptr %0, i64 201224
  %11 = load i32, ptr %10, align 8, !tbaa !72
  %.fr = freeze i32 %11
  %12 = getelementptr inbounds nuw i8, ptr %0, i64 201228
  %13 = load i32, ptr %12, align 4, !tbaa !71
  %.fr51 = freeze i32 %13
  %14 = add nsw i32 %.fr51, %.fr
  %15 = icmp sgt i32 %.fr, 0
  %16 = getelementptr inbounds nuw i8, ptr %0, i64 201208
  %17 = load ptr, ptr %16, align 8
  %18 = zext nneg i32 %.fr to i64
  %19 = sext i32 %.fr to i64
  %20 = icmp sgt i32 %.fr51, 0
  %21 = getelementptr inbounds nuw i8, ptr %0, i64 201216
  %22 = load ptr, ptr %21, align 8
  %23 = zext nneg i32 %.fr51 to i64
  %24 = getelementptr inbounds nuw i8, ptr %0, i64 201200
  %25 = load i32, ptr %24, align 8
  %.fr50 = freeze i32 %25
  %26 = and i32 %.fr50, 1
  %.not21 = icmp eq i32 %26, 0
  %27 = zext nneg i32 %3 to i64
  br i1 %.not21, label %.lr.ph.split.us, label %.lr.ph.split

.lr.ph.split.us:                                  ; preds = %.lr.ph
  br i1 %20, label %.lr.ph.split.us.split.us, label %.lr.ph.split.us.split

.lr.ph.split.us.split.us:                         ; preds = %.lr.ph.split.us
  br i1 %15, label %.lr.ph.split.us.split.us.split.us, label %.lr.ph.split.us.split.us.split

.lr.ph.split.us.split.us.split.us:                ; preds = %.lr.ph.split.us.split.us, %.backedge.us.us.us
  %indvars.iv94 = phi i64 [ %indvars.iv.next95, %.backedge.us.us.us ], [ %27, %.lr.ph.split.us.split.us ]
  %indvars.iv.next95 = add nuw nsw i64 %indvars.iv94, 1
  %28 = trunc i64 %indvars.iv.next95 to i32
  store i32 %28, ptr %2, align 8, !tbaa !27
  %29 = getelementptr inbounds nuw %"struct.icu_77::Item", ptr %9, i64 %indvars.iv94
  %30 = load ptr, ptr %29, align 8, !tbaa !54
  %31 = tail call i64 @strlen(ptr noundef nonnull dereferenceable(1) %30) #24
  %32 = trunc i64 %31 to i32
  %33 = icmp sgt i32 %14, %32
  br i1 %33, label %.backedge.us.us.us, label %34

34:                                               ; preds = %.lr.ph.split.us.split.us.split.us
  %bcmp.us.us.us = tail call i32 @bcmp(ptr %17, ptr nonnull %30, i64 %18)
  %.not.us.us.us = icmp eq i32 %bcmp.us.us.us, 0
  br i1 %.not.us.us.us, label %35, label %._crit_edge

35:                                               ; preds = %34
  %36 = sub nsw i32 %32, %.fr51
  %37 = sext i32 %36 to i64
  %38 = getelementptr inbounds i8, ptr %30, i64 %37
  %bcmp23.us.us.us = tail call i32 @bcmp(ptr %22, ptr nonnull %38, i64 %23)
  %.not20.us.us.us = icmp eq i32 %bcmp23.us.us.us, 0
  br i1 %.not20.us.us.us, label %.loopexit.loopexit, label %.backedge.us.us.us

.backedge.us.us.us:                               ; preds = %35, %.lr.ph.split.us.split.us.split.us
  %exitcond98.not = icmp eq i32 %6, %28
  br i1 %exitcond98.not, label %._crit_edge, label %.lr.ph.split.us.split.us.split.us, !llvm.loop !73

.lr.ph.split.us.split.us.split:                   ; preds = %.lr.ph.split.us.split.us, %.backedge.us.us
  %indvars.iv89 = phi i64 [ %indvars.iv.next90, %.backedge.us.us ], [ %27, %.lr.ph.split.us.split.us ]
  %indvars.iv.next90 = add nuw nsw i64 %indvars.iv89, 1
  %39 = trunc i64 %indvars.iv.next90 to i32
  store i32 %39, ptr %2, align 8, !tbaa !27
  %40 = getelementptr inbounds nuw %"struct.icu_77::Item", ptr %9, i64 %indvars.iv89
  %41 = load ptr, ptr %40, align 8, !tbaa !54
  %42 = tail call i64 @strlen(ptr noundef nonnull dereferenceable(1) %41) #24
  %43 = trunc i64 %42 to i32
  %44 = icmp sgt i32 %14, %43
  br i1 %44, label %.backedge.us.us, label %45

45:                                               ; preds = %.lr.ph.split.us.split.us.split
  %46 = sub nsw i32 %43, %.fr51
  %47 = sext i32 %46 to i64
  %48 = getelementptr inbounds i8, ptr %41, i64 %47
  %bcmp23.us.us = tail call i32 @bcmp(ptr %22, ptr nonnull %48, i64 %23)
  %.not20.us.us = icmp eq i32 %bcmp23.us.us, 0
  br i1 %.not20.us.us, label %.loopexit.loopexit52, label %.backedge.us.us

.backedge.us.us:                                  ; preds = %45, %.lr.ph.split.us.split.us.split
  %exitcond93.not = icmp eq i32 %6, %39
  br i1 %exitcond93.not, label %._crit_edge, label %.lr.ph.split.us.split.us.split, !llvm.loop !73

.lr.ph.split.us.split:                            ; preds = %.lr.ph.split.us, %.backedge.us
  %indvars.iv84 = phi i64 [ %indvars.iv.next85, %.backedge.us ], [ %27, %.lr.ph.split.us ]
  %indvars.iv.next85 = add nuw nsw i64 %indvars.iv84, 1
  %49 = trunc i64 %indvars.iv.next85 to i32
  store i32 %49, ptr %2, align 8, !tbaa !27
  %50 = getelementptr inbounds nuw %"struct.icu_77::Item", ptr %9, i64 %indvars.iv84
  %51 = load ptr, ptr %50, align 8, !tbaa !54
  %52 = tail call i64 @strlen(ptr noundef nonnull dereferenceable(1) %51) #24
  %53 = trunc i64 %52 to i32
  %54 = icmp sgt i32 %14, %53
  br i1 %54, label %.backedge.us, label %55

55:                                               ; preds = %.lr.ph.split.us.split
  %56 = trunc nsw i64 %indvars.iv84 to i32
  br i1 %15, label %57, label %.loopexit

57:                                               ; preds = %55
  %bcmp.us = tail call i32 @bcmp(ptr %17, ptr nonnull %51, i64 %18)
  %.not.us = icmp eq i32 %bcmp.us, 0
  br i1 %.not.us, label %.loopexit, label %._crit_edge

.backedge.us:                                     ; preds = %.lr.ph.split.us.split
  %exitcond88.not = icmp eq i32 %6, %49
  br i1 %exitcond88.not, label %._crit_edge, label %.lr.ph.split.us.split, !llvm.loop !73

.lr.ph.split:                                     ; preds = %.lr.ph
  br i1 %20, label %.lr.ph.split.split.us, label %.lr.ph.split.split

.lr.ph.split.split.us:                            ; preds = %.lr.ph.split, %.backedge.us32
  %indvars.iv79 = phi i64 [ %indvars.iv.next80, %.backedge.us32 ], [ %27, %.lr.ph.split ]
  %indvars.iv.next80 = add nuw nsw i64 %indvars.iv79, 1
  %58 = trunc i64 %indvars.iv.next80 to i32
  store i32 %58, ptr %2, align 8, !tbaa !27
  %59 = getelementptr inbounds nuw %"struct.icu_77::Item", ptr %9, i64 %indvars.iv79
  %60 = load ptr, ptr %59, align 8, !tbaa !54
  %61 = tail call i64 @strlen(ptr noundef nonnull dereferenceable(1) %60) #24
  %62 = trunc i64 %61 to i32
  %63 = icmp sgt i32 %14, %62
  br i1 %63, label %.backedge.us32, label %64

64:                                               ; preds = %.lr.ph.split.split.us
  br i1 %15, label %65, label %66

65:                                               ; preds = %64
  %bcmp.us28 = tail call i32 @bcmp(ptr %17, ptr nonnull %60, i64 %18)
  %.not.us29 = icmp eq i32 %bcmp.us28, 0
  br i1 %.not.us29, label %66, label %._crit_edge

66:                                               ; preds = %65, %64
  %67 = getelementptr inbounds i8, ptr %60, i64 %19
  %68 = sub i32 %62, %14
  %69 = sub nsw i32 %62, %.fr51
  %70 = sext i32 %69 to i64
  %71 = getelementptr inbounds i8, ptr %60, i64 %70
  %bcmp23.us30 = tail call i32 @bcmp(ptr %22, ptr nonnull %71, i64 %23)
  %.not20.us31 = icmp eq i32 %bcmp23.us30, 0
  br i1 %.not20.us31, label %72, label %.backedge.us32

72:                                               ; preds = %66
  %73 = tail call noundef ptr @strchr(ptr noundef nonnull dereferenceable(1) %67, i32 noundef 47) #24
  %.not22.us = icmp eq ptr %73, null
  br i1 %.not22.us, label %.loopexit.loopexit102, label %74

74:                                               ; preds = %72
  %75 = ptrtoint ptr %73 to i64
  %76 = ptrtoint ptr %67 to i64
  %77 = sub i64 %75, %76
  %78 = sext i32 %68 to i64
  %79 = icmp slt i64 %77, %78
  br i1 %79, label %.backedge.us32, label %.loopexit.loopexit102

.backedge.us32:                                   ; preds = %74, %66, %.lr.ph.split.split.us
  %exitcond83.not = icmp eq i32 %6, %58
  br i1 %exitcond83.not, label %._crit_edge, label %.lr.ph.split.split.us, !llvm.loop !73

.lr.ph.split.split:                               ; preds = %.lr.ph.split
  br i1 %15, label %.lr.ph.split.split.split.us, label %.lr.ph.split.split.split

.lr.ph.split.split.split.us:                      ; preds = %.lr.ph.split.split, %.backedge.us38
  %indvars.iv74 = phi i64 [ %indvars.iv.next75, %.backedge.us38 ], [ %27, %.lr.ph.split.split ]
  %indvars.iv.next75 = add nuw nsw i64 %indvars.iv74, 1
  %80 = trunc i64 %indvars.iv.next75 to i32
  store i32 %80, ptr %2, align 8, !tbaa !27
  %81 = getelementptr inbounds nuw %"struct.icu_77::Item", ptr %9, i64 %indvars.iv74
  %82 = load ptr, ptr %81, align 8, !tbaa !54
  %83 = tail call i64 @strlen(ptr noundef nonnull dereferenceable(1) %82) #24
  %84 = trunc i64 %83 to i32
  %85 = icmp sgt i32 %14, %84
  br i1 %85, label %.backedge.us38, label %86

86:                                               ; preds = %.lr.ph.split.split.split.us
  %bcmp.us35 = tail call i32 @bcmp(ptr %17, ptr nonnull %82, i64 %18)
  %.not.us36 = icmp eq i32 %bcmp.us35, 0
  br i1 %.not.us36, label %87, label %._crit_edge

87:                                               ; preds = %86
  %88 = getelementptr inbounds nuw i8, ptr %82, i64 %19
  %89 = tail call noundef ptr @strchr(ptr noundef nonnull dereferenceable(1) %88, i32 noundef 47) #24
  %.not22.us37 = icmp eq ptr %89, null
  br i1 %.not22.us37, label %.loopexit.loopexit104, label %90

90:                                               ; preds = %87
  %91 = sub i32 %84, %14
  %92 = ptrtoint ptr %89 to i64
  %93 = ptrtoint ptr %88 to i64
  %94 = sub i64 %92, %93
  %95 = sext i32 %91 to i64
  %96 = icmp slt i64 %94, %95
  br i1 %96, label %.backedge.us38, label %.loopexit.loopexit104

.backedge.us38:                                   ; preds = %90, %.lr.ph.split.split.split.us
  %exitcond78.not = icmp eq i32 %6, %80
  br i1 %exitcond78.not, label %._crit_edge, label %.lr.ph.split.split.split.us, !llvm.loop !73

.lr.ph.split.split.split:                         ; preds = %.lr.ph.split.split, %.backedge
  %indvars.iv = phi i64 [ %indvars.iv.next, %.backedge ], [ %27, %.lr.ph.split.split ]
  %indvars.iv.next = add nuw nsw i64 %indvars.iv, 1
  %97 = trunc i64 %indvars.iv.next to i32
  store i32 %97, ptr %2, align 8, !tbaa !27
  %98 = getelementptr inbounds nuw %"struct.icu_77::Item", ptr %9, i64 %indvars.iv
  %99 = load ptr, ptr %98, align 8, !tbaa !54
  %100 = tail call i64 @strlen(ptr noundef nonnull dereferenceable(1) %99) #24
  %101 = trunc i64 %100 to i32
  %102 = icmp sgt i32 %14, %101
  br i1 %102, label %.backedge, label %103

.backedge:                                        ; preds = %.lr.ph.split.split.split, %106
  %exitcond.not = icmp eq i32 %6, %97
  br i1 %exitcond.not, label %._crit_edge, label %.lr.ph.split.split.split, !llvm.loop !73

103:                                              ; preds = %.lr.ph.split.split.split
  %104 = getelementptr inbounds i8, ptr %99, i64 %19
  %105 = tail call noundef ptr @strchr(ptr noundef nonnull dereferenceable(1) %104, i32 noundef 47) #24
  %.not22 = icmp eq ptr %105, null
  br i1 %.not22, label %.loopexit.loopexit105, label %106

106:                                              ; preds = %103
  %107 = sub i32 %101, %14
  %108 = ptrtoint ptr %105 to i64
  %109 = ptrtoint ptr %104 to i64
  %110 = sub i64 %108, %109
  %111 = sext i32 %107 to i64
  %112 = icmp slt i64 %110, %111
  br i1 %112, label %.backedge, label %.loopexit.loopexit105

._crit_edge:                                      ; preds = %.backedge, %.backedge.us38, %86, %.backedge.us32, %65, %.backedge.us, %.backedge.us.us, %.backedge.us.us.us, %34, %57, %.preheader
  store i32 -1, ptr %2, align 8, !tbaa !27
  br label %.loopexit

.loopexit.loopexit:                               ; preds = %35
  %113 = trunc nsw i64 %indvars.iv94 to i32
  br label %.loopexit

.loopexit.loopexit52:                             ; preds = %45
  %114 = trunc nsw i64 %indvars.iv89 to i32
  br label %.loopexit

.loopexit.loopexit102:                            ; preds = %74, %72
  %115 = trunc nsw i64 %indvars.iv79 to i32
  br label %.loopexit

.loopexit.loopexit104:                            ; preds = %87, %90
  %116 = trunc nsw i64 %indvars.iv74 to i32
  br label %.loopexit

.loopexit.loopexit105:                            ; preds = %106, %103
  %117 = trunc nsw i64 %indvars.iv to i32
  br label %.loopexit

.loopexit:                                        ; preds = %.loopexit.loopexit105, %.loopexit.loopexit104, %.loopexit.loopexit102, %.loopexit.loopexit52, %.loopexit.loopexit, %55, %57, %1, %._crit_edge
  %.0 = phi i32 [ -1, %._crit_edge ], [ -1, %1 ], [ %56, %55 ], [ %56, %57 ], [ %113, %.loopexit.loopexit ], [ %114, %.loopexit.loopexit52 ], [ %115, %.loopexit.loopexit102 ], [ %116, %.loopexit.loopexit104 ], [ %117, %.loopexit.loopexit105 ]
  ret i32 %.0
}